; Function Attrs: nounwind uwtable
define internal fastcc noalias noundef ptr @compute_weighted_apsp_packed(ptr noundef %0, i32 noundef %1) unnamed_addr #0 {
  %3 = add nsw i32 %1, 1
  %4 = mul nsw i32 %3, %1
  %5 = sdiv i32 %4, 2
  %6 = sext i32 %5 to i64
  %.off = add i32 %4, 1
  %.not.i = icmp ult i32 %.off, 3
  br i1 %.not.i, label %.thread.i, label %8

.thread.i:                                        ; preds = %2
  %7 = tail call noalias ptr @calloc(i64 noundef 0, i64 noundef 4) #17
  br label %gv_calloc.exit

8:                                                ; preds = %2
  %mul.ov.i = icmp slt i32 %4, -1
  br i1 %mul.ov.i, label %9, label %12

9:                                                ; preds = %8
  %10 = load ptr, ptr @stderr, align 8, !tbaa !37
  %11 = tail call i32 (ptr, ptr, ...) @fprintf(ptr noundef %10, ptr noundef nonnull @.str.14, i64 noundef %6, i64 noundef 4) #18
  tail call fastcc void @graphviz_exit() #19
  unreachable

12:                                               ; preds = %8
  %13 = tail call noalias ptr @calloc(i64 noundef %6, i64 noundef 4) #17
  %14 = icmp eq ptr %13, null
  br i1 %14, label %15, label %gv_calloc.exit

15:                                               ; preds = %12
  %16 = load ptr, ptr @stderr, align 8, !tbaa !37
  %17 = shl nuw nsw i64 %6, 2
  %18 = tail call i32 (ptr, ptr, ...) @fprintf(ptr noundef %16, ptr noundef nonnull @.str.15, i64 noundef %17) #18
  tail call fastcc void @graphviz_exit() #19
  unreachable

gv_calloc.exit:                                   ; preds = %.thread.i, %12
  %19 = phi ptr [ %7, %.thread.i ], [ %13, %12 ]
  %20 = sext i32 %1 to i64
  %.not.i22 = icmp eq i32 %1, 0
  br i1 %.not.i22, label %gv_calloc.exit26, label %21

21:                                               ; preds = %gv_calloc.exit
  %mul.ov.i24 = icmp slt i32 %1, 0
  br i1 %mul.ov.i24, label %22, label %25

22:                                               ; preds = %21
  %23 = load ptr, ptr @stderr, align 8, !tbaa !37
  %24 = tail call i32 (ptr, ptr, ...) @fprintf(ptr noundef %23, ptr noundef nonnull @.str.14, i64 noundef %20, i64 noundef 4) #18
  tail call fastcc void @graphviz_exit() #19
  unreachable

25:                                               ; preds = %21
  %26 = tail call noalias ptr @calloc(i64 noundef %20, i64 noundef 4) #17
  %27 = icmp eq ptr %26, null
  br i1 %27, label %28, label %.lr.ph.preheader

28:                                               ; preds = %25
  %29 = load ptr, ptr @stderr, align 8, !tbaa !37
  %30 = shl nuw nsw i64 %20, 2
  %31 = tail call i32 (ptr, ptr, ...) @fprintf(ptr noundef %29, ptr noundef nonnull @.str.15, i64 noundef %30) #18
  tail call fastcc void @graphviz_exit() #19
  unreachable

gv_calloc.exit26:                                 ; preds = %gv_calloc.exit
  %32 = tail call noalias ptr @calloc(i64 noundef 0, i64 noundef 4) #17
  br label %._crit_edge

.lr.ph.preheader:                                 ; preds = %25
  %33 = add nsw i32 %1, -1
  %wide.trip.count40 = zext nneg i32 %1 to i64
  br label %.lr.ph

.lr.ph:                                           ; preds = %.lr.ph.preheader, %.lr.ph
  %indvars.iv34 = phi i32 [ %33, %.lr.ph.preheader ], [ %indvars.iv.next35, %.lr.ph ]
  %indvar = phi i64 [ 0, %.lr.ph.preheader ], [ %indvar.next, %.lr.ph ]
  %.02029 = phi i64 [ 0, %.lr.ph.preheader ], [ %44, %.lr.ph ]
  %indvars39 = trunc i64 %indvar to i32
  %34 = shl nuw nsw i64 %indvar, 2
  %scevgep31 = getelementptr i8, ptr %26, i64 %34
  %35 = trunc i64 %indvar to i32
  %36 = sub i32 %33, %35
  %37 = zext i32 %36 to i64
  %38 = shl nuw nsw i64 %37, 2
  %39 = add nuw nsw i64 %38, 4
  tail call void @dijkstra_f(i32 noundef %indvars39, ptr noundef %0, i32 noundef %1, ptr noundef nonnull %26) #16
  %sext = shl i64 %.02029, 32
  %40 = ashr exact i64 %sext, 32
  %41 = ashr exact i64 %sext, 30
  %scevgep = getelementptr i8, ptr %19, i64 %41
  tail call void @llvm.memcpy.p0.p0.i64(ptr noundef nonnull align 4 dereferenceable(1) %scevgep, ptr noundef nonnull align 4 dereferenceable(1) %scevgep31, i64 %39, i1 false), !tbaa !47
  %42 = add nsw i64 %40, 1
  %43 = zext i32 %indvars.iv34 to i64
  %44 = add nsw i64 %42, %43
  %indvar.next = add nuw nsw i64 %indvar, 1
  %indvars.iv.next35 = add i32 %indvars.iv34, -1
  %exitcond.not = icmp eq i64 %indvar.next, %wide.trip.count40
  br i1 %exitcond.not, label %._crit_edge, label %.lr.ph, !llvm.loop !57

._crit_edge:                                      ; preds = %.lr.ph, %gv_calloc.exit26
  %45 = phi ptr [ %32, %gv_calloc.exit26 ], [ %26, %.lr.ph ]
  tail call void @free(ptr noundef %45) #16
  ret ptr %19
}